target datalayout = "e-m:e-p270:32:32-p271:32:32-p272:64:64-i64:64-i128:128-f80:128-n8:16:32:64-S128"
target triple = "x86_64-pc-linux-gnu"

%struct.AVPacket = type { ptr, i64, i64, ptr, i32, i32, i32, ptr, i32, i64, i64, ptr, ptr, %struct.AVRational }
%struct.AVRational = type { i32, i32 }
%struct.AVFormatContext = type { ptr, ptr, ptr, ptr, ptr, i32, i32, ptr, i32, ptr, i32, ptr, ptr, i64, i64, i64, i32, i32, i32, i64, i64, ptr, i32, i32, ptr, i32, i32, i32, i32, ptr, i64, i32, i32, %struct.AVIOInterruptCB, i32, i32, i32, i32, i64, i32, i32, i32, i32, i32, i32, i32, i32, i32, i32, i32, i32, i64, i32, i32, i32, i32, i32, ptr, ptr, ptr, ptr, i32, ptr, ptr, ptr, ptr, i32, ptr, ptr, i64, ptr, ptr, ptr, i64 }
%struct.AVIOInterruptCB = type { ptr, ptr }
%struct.GetBitContext = type { ptr, ptr, i32, i32, i32 }

; Function Attrs: inlinehint nounwind uwtable
define internal i32 @get_bits1(ptr noundef %0) #5 {
  %2 = alloca ptr, align 8
  %3 = alloca i32, align 4
  %4 = alloca i8, align 1
  store ptr %0, ptr %2, align 8, !tbaa !77
  call void @llvm.lifetime.start.p0(i64 4, ptr %3) #8
  %5 = load ptr, ptr %2, align 8, !tbaa !77
  %6 = getelementptr inbounds nuw %struct.GetBitContext, ptr %5, i32 0, i32 2
  %7 = load i32, ptr %6, align 8, !tbaa !84
  store i32 %7, ptr %3, align 4, !tbaa !9
  call void @llvm.lifetime.start.p0(i64 1, ptr %4) #8
  %8 = load ptr, ptr %2, align 8, !tbaa !77
  %9 = getelementptr inbounds nuw %struct.GetBitContext, ptr %8, i32 0, i32 0
  %10 = load ptr, ptr %9, align 8, !tbaa !79
  %11 = load i32, ptr %3, align 4, !tbaa !9
  %12 = lshr i32 %11, 3
  %13 = zext i32 %12 to i64
  %14 = getelementptr inbounds nuw i8, ptr %10, i64 %13
  %15 = load i8, ptr %14, align 1, !tbaa !15
  store i8 %15, ptr %4, align 1, !tbaa !15
  %16 = load i32, ptr %3, align 4, !tbaa !9
  %17 = and i32 %16, 7
  %18 = load i8, ptr %4, align 1, !tbaa !15
  %19 = zext i8 %18 to i32
  %20 = shl i32 %19, %17
  %21 = trunc i32 %20 to i8
  store i8 %21, ptr %4, align 1, !tbaa !15
  %22 = load i8, ptr %4, align 1, !tbaa !15
  %23 = zext i8 %22 to i32
  %24 = ashr i32 %23, 7
  %25 = trunc i32 %24 to i8
  store i8 %25, ptr %4, align 1, !tbaa !15
  %26 = load ptr, ptr %2, align 8, !tbaa !77
  %27 = getelementptr inbounds nuw %struct.GetBitContext, ptr %26, i32 0, i32 2
  %28 = load i32, ptr %27, align 8, !tbaa !84
  %29 = load ptr, ptr %2, align 8, !tbaa !77
  %30 = getelementptr inbounds nuw %struct.GetBitContext, ptr %29, i32 0, i32 4
  %31 = load i32, ptr %30, align 8, !tbaa !82
  %32 = icmp slt i32 %28, %31
  br i1 %32, label %33, label %36

33:                                               ; preds = %1
  %34 = load i32, ptr %3, align 4, !tbaa !9
  %35 = add i32 %34, 1
  store i32 %35, ptr %3, align 4, !tbaa !9
  br label %36

36:                                               ; preds = %33, %1
  %37 = load i32, ptr %3, align 4, !tbaa !9
  %38 = load ptr, ptr %2, align 8, !tbaa !77
  %39 = getelementptr inbounds nuw %struct.GetBitContext, ptr %38, i32 0, i32 2
  store i32 %37, ptr %39, align 8, !tbaa !84
  %40 = load i8, ptr %4, align 1, !tbaa !15
  %41 = zext i8 %40 to i32
  call void @llvm.lifetime.end.p0(i64 1, ptr %4) #8
  call void @llvm.lifetime.end.p0(i64 4, ptr %3) #8
  ret i32 %41
}

; Function Attrs: inlinehint nounwind uwtable
define internal i32 @init_get_bits(ptr noundef %0, ptr noundef %1, i32 noundef %2) #5 {
  %4 = alloca ptr, align 8
  %5 = alloca ptr, align 8
  %6 = alloca i32, align 4
  %7 = alloca i32, align 4
  %8 = alloca i32, align 4
  store ptr %0, ptr %4, align 8, !tbaa !77
  store ptr %1, ptr %5, align 8, !tbaa !69
  store i32 %2, ptr %6, align 4, !tbaa !9
  call void @llvm.lifetime.start.p0(i64 4, ptr %7) #8
  call void @llvm.lifetime.start.p0(i64 4, ptr %8) #8
  store i32 0, ptr %8, align 4, !tbaa !9
  %9 = load i32, ptr %6, align 4, !tbaa !9
  %10 = icmp sge i32 %9, 2147483135
  br i1 %10, label %17, label %11

11:                                               ; preds = %3
  %12 = load i32, ptr %6, align 4, !tbaa !9
  %13 = icmp slt i32 %12, 0
  br i1 %13, label %17, label %14

14:                                               ; preds = %11
  %15 = load ptr, ptr %5, align 8, !tbaa !69
  %16 = icmp ne ptr %15, null
  br i1 %16, label %18, label %17

17:                                               ; preds = %14, %11, %3
  store i32 0, ptr %6, align 4, !tbaa !9
  store ptr null, ptr %5, align 8, !tbaa !69
  store i32 -1094995529, ptr %8, align 4, !tbaa !9
  br label %18

18:                                               ; preds = %17, %14
  %19 = load i32, ptr %6, align 4, !tbaa !9
  %20 = add nsw i32 %19, 7
  %21 = ashr i32 %20, 3
  store i32 %21, ptr %7, align 4, !tbaa !9
  %22 = load ptr, ptr %5, align 8, !tbaa !69
  %23 = load ptr, ptr %4, align 8, !tbaa !77
  %24 = getelementptr inbounds nuw %struct.GetBitContext, ptr %23, i32 0, i32 0
  store ptr %22, ptr %24, align 8, !tbaa !79
  %25 = load i32, ptr %6, align 4, !tbaa !9
  %26 = load ptr, ptr %4, align 8, !tbaa !77
  %27 = getelementptr inbounds nuw %struct.GetBitContext, ptr %26, i32 0, i32 3
  store i32 %25, ptr %27, align 4, !tbaa !81
  %28 = load i32, ptr %6, align 4, !tbaa !9
  %29 = add nsw i32 %28, 8
  %30 = load ptr, ptr %4, align 8, !tbaa !77
  %31 = getelementptr inbounds nuw %struct.GetBitContext, ptr %30, i32 0, i32 4
  store i32 %29, ptr %31, align 8, !tbaa !82
  %32 = load ptr, ptr %5, align 8, !tbaa !69
  %33 = load i32, ptr %7, align 4, !tbaa !9
  %34 = sext i32 %33 to i64
  %35 = getelementptr inbounds i8, ptr %32, i64 %34
  %36 = load ptr, ptr %4, align 8, !tbaa !77
  %37 = getelementptr inbounds nuw %struct.GetBitContext, ptr %36, i32 0, i32 1
  store ptr %35, ptr %37, align 8, !tbaa !83
  %38 = load ptr, ptr %4, align 8, !tbaa !77
  %39 = getelementptr inbounds nuw %struct.GetBitContext, ptr %38, i32 0, i32 2
  store i32 0, ptr %39, align 8, !tbaa !84
  %40 = load i32, ptr %8, align 4, !tbaa !9
  call void @llvm.lifetime.end.p0(i64 4, ptr %8) #8
  call void @llvm.lifetime.end.p0(i64 4, ptr %7) #8
  ret i32 %40
}

; Function Attrs: nounwind uwtable
define internal i32 @write_packet(ptr noundef %0, ptr noundef %1) #0 {
  %3 = alloca i32, align 4
  %4 = alloca ptr, align 8
  %5 = alloca ptr, align 8
  %6 = alloca ptr, align 8
  %7 = alloca %struct.GetBitContext, align 8
  %8 = alloca i32, align 4
  %9 = alloca i32, align 4
  store ptr %0, ptr %4, align 8, !tbaa !18
  store ptr %1, ptr %5, align 8, !tbaa !39
  call void @llvm.lifetime.start.p0(i64 8, ptr %6) #8
  %10 = load ptr, ptr %4, align 8, !tbaa !18
  %11 = getelementptr inbounds nuw %struct.AVFormatContext, ptr %10, i32 0, i32 4
  %12 = load ptr, ptr %11, align 8, !tbaa !41
  store ptr %12, ptr %6, align 8, !tbaa !53
  call void @llvm.lifetime.start.p0(i64 32, ptr %7) #8
  call void @llvm.lifetime.start.p0(i64 4, ptr %8) #8
  %13 = load ptr, ptr %5, align 8, !tbaa !39
  %14 = getelementptr inbounds nuw %struct.AVPacket, ptr %13, i32 0, i32 4
  %15 = load i32, ptr %14, align 8, !tbaa !62
  %16 = icmp ne i32 %15, 10
  br i1 %16, label %17, label %18

17:                                               ; preds = %2
  store i32 -22, ptr %3, align 4
  store i32 1, ptr %9, align 4
  br label %49

18:                                               ; preds = %2
  %19 = load ptr, ptr %6, align 8, !tbaa !53
  call void @avio_wl16(ptr noundef %19, i32 noundef 27425)
  %20 = load ptr, ptr %6, align 8, !tbaa !53
  %21 = load ptr, ptr %5, align 8, !tbaa !39
  %22 = getelementptr inbounds nuw %struct.AVPacket, ptr %21, i32 0, i32 4
  %23 = load i32, ptr %22, align 8, !tbaa !62
  %24 = mul nsw i32 8, %23
  call void @avio_wl16(ptr noundef %20, i32 noundef %24)
  %25 = load ptr, ptr %5, align 8, !tbaa !39
  %26 = getelementptr inbounds nuw %struct.AVPacket, ptr %25, i32 0, i32 3
  %27 = load ptr, ptr %26, align 8, !tbaa !57
  %28 = load ptr, ptr %5, align 8, !tbaa !39
  %29 = getelementptr inbounds nuw %struct.AVPacket, ptr %28, i32 0, i32 4
  %30 = load i32, ptr %29, align 8, !tbaa !62
  %31 = mul nsw i32 8, %30
  %32 = call i32 @init_get_bits(ptr noundef %7, ptr noundef %27, i32 noundef %31)
  store i32 0, ptr %8, align 4, !tbaa !9
  br label %33

33:                                               ; preds = %45, %18
  %34 = load i32, ptr %8, align 4, !tbaa !9
  %35 = load ptr, ptr %5, align 8, !tbaa !39
  %36 = getelementptr inbounds nuw %struct.AVPacket, ptr %35, i32 0, i32 4
  %37 = load i32, ptr %36, align 8, !tbaa !62
  %38 = mul nsw i32 8, %37
  %39 = icmp slt i32 %34, %38
  br i1 %39, label %40, label %48

40:                                               ; preds = %33
  %41 = load ptr, ptr %6, align 8, !tbaa !53
  %42 = call i32 @get_bits1(ptr noundef %7)
  %43 = icmp ne i32 %42, 0
  %44 = select i1 %43, i32 129, i32 127
  call void @avio_wl16(ptr noundef %41, i32 noundef %44)
  br label %45

45:                                               ; preds = %40
  %46 = load i32, ptr %8, align 4, !tbaa !9
  %47 = add nsw i32 %46, 1
  store i32 %47, ptr %8, align 4, !tbaa !9
  br label %33, !llvm.loop !63

48:                                               ; preds = %33
  store i32 0, ptr %3, align 4
  store i32 1, ptr %9, align 4
  br label %49

49:                                               ; preds = %48, %17
  call void @llvm.lifetime.end.p0(i64 4, ptr %8) #8
  call void @llvm.lifetime.end.p0(i64 32, ptr %7) #8
  call void @llvm.lifetime.end.p0(i64 8, ptr %6) #8
  %50 = load i32, ptr %3, align 4
  ret i32 %50
}