; Function Attrs: nounwind uwtable
define internal range(i32 -22, 1) i32 @write_packet(ptr noundef readonly captures(none) %0, ptr noundef readonly captures(none) %1) #1 {
  %3 = getelementptr inbounds nuw i8, ptr %0, i64 32
  %4 = load ptr, ptr %3, align 8, !tbaa !32
  %5 = getelementptr inbounds nuw i8, ptr %1, i64 32
  %6 = load i32, ptr %5, align 8, !tbaa !50
  %.not = icmp eq i32 %6, 10
  br i1 %.not, label %7, label %.loopexit

7:                                                ; preds = %2
  tail call void @avio_wl16(ptr noundef %4, i32 noundef 27425) #7
  %8 = load i32, ptr %5, align 8, !tbaa !50
  %9 = shl nsw i32 %8, 3
  tail call void @avio_wl16(ptr noundef %4, i32 noundef %9) #7
  %10 = getelementptr inbounds nuw i8, ptr %1, i64 24
  %11 = load ptr, ptr %10, align 8, !tbaa !44
  %12 = load i32, ptr %5, align 8, !tbaa !50
  %13 = shl nsw i32 %12, 3
  %or.cond.i = icmp ult i32 %13, 2147483135
  %14 = icmp ne ptr %11, null
  %or.cond3.i = and i1 %14, %or.cond.i
  %15 = add nuw nsw i32 %13, 8
  %16 = select i1 %or.cond3.i, i32 %15, i32 8
  %17 = icmp sgt i32 %12, 0
  br i1 %17, label %.lr.ph, label %.loopexit

.lr.ph:                                           ; preds = %7, %.lr.ph
  %.014 = phi i32 [ %29, %.lr.ph ], [ 0, %7 ]
  %.sroa.5.013 = phi i32 [ %spec.select.i, %.lr.ph ], [ 0, %7 ]
  %18 = lshr i32 %.sroa.5.013, 3
  %19 = zext nneg i32 %18 to i64
  %20 = getelementptr inbounds nuw i8, ptr %11, i64 %19
  %21 = load i8, ptr %20, align 1, !tbaa !12
  %22 = icmp slt i32 %.sroa.5.013, %16
  %23 = zext i1 %22 to i32
  %spec.select.i = add i32 %.sroa.5.013, %23
  %24 = zext i8 %21 to i32
  %25 = and i32 %.sroa.5.013, 7
  %26 = lshr exact i32 128, %25
  %27 = and i32 %26, %24
  %.not12 = icmp eq i32 %27, 0
  %28 = select i1 %.not12, i32 127, i32 129
  tail call void @avio_wl16(ptr noundef %4, i32 noundef %28) #7
  %29 = add nuw nsw i32 %.014, 1
  %30 = load i32, ptr %5, align 8, !tbaa !50
  %31 = shl nsw i32 %30, 3
  %32 = icmp slt i32 %29, %31
  br i1 %32, label %.lr.ph, label %.loopexit, !llvm.loop !51

.loopexit:                                        ; preds = %.lr.ph, %7, %2
  %.011 = phi i32 [ -22, %2 ], [ 0, %7 ], [ 0, %.lr.ph ]
  ret i32 %.011
}